; Function Attrs: mustprogress nofree norecurse nosync nounwind willreturn memory(read, argmem: readwrite, inaccessiblemem: none) uwtable
define hidden void @ncnn_blob_get_bottom_shape(ptr nocapture noundef readonly %0, i32 noundef %1, ptr nocapture noundef writeonly %2, ptr nocapture noundef writeonly %3, ptr nocapture noundef writeonly %4, ptr nocapture noundef writeonly %5) local_unnamed_addr #15 {
  %7 = load ptr, ptr %0, align 8
  %8 = getelementptr inbounds nuw i8, ptr %7, i64 160
  %9 = sext i32 %1 to i64
  %10 = load ptr, ptr %8, align 8
  %11 = getelementptr inbounds %"class.ncnn::Mat", ptr %10, i64 %9
  %12 = getelementptr inbounds nuw i8, ptr %11, i64 40
  %13 = load i32, ptr %12, align 8
  store i32 %13, ptr %2, align 4
  %14 = getelementptr inbounds nuw i8, ptr %11, i64 44
  %15 = load i32, ptr %14, align 4
  store i32 %15, ptr %3, align 4
  %16 = getelementptr inbounds nuw i8, ptr %11, i64 48
  %17 = load i32, ptr %16, align 8
  store i32 %17, ptr %4, align 4
  %18 = getelementptr inbounds nuw i8, ptr %11, i64 56
  %19 = load i32, ptr %18, align 8
  store i32 %19, ptr %5, align 4
  ret void
}